target datalayout = "e-m:e-p270:32:32-p271:32:32-p272:64:64-i64:64-i128:128-f80:128-n8:16:32:64-S128"
target triple = "x86_64-pc-linux-gnu"

%struct.lua_TValue = type { %union.Value, [1 x i32], i32 }
%union.Value = type { ptr }

; Function Attrs: mustprogress nounwind uwtable
define internal noundef i32 @_ZL10luauF_modfP9lua_StateP10lua_TValueS2_iS2_i(ptr noundef %0, ptr noundef %1, ptr noundef %2, i32 noundef %3, ptr noundef %4, i32 noundef %5) #0 {
  %7 = alloca i32, align 4
  %8 = alloca ptr, align 8
  %9 = alloca ptr, align 8
  %10 = alloca ptr, align 8
  %11 = alloca i32, align 4
  %12 = alloca ptr, align 8
  %13 = alloca i32, align 4
  %14 = alloca double, align 8
  %15 = alloca double, align 8
  %16 = alloca double, align 8
  %17 = alloca ptr, align 8
  %18 = alloca ptr, align 8
  store ptr %0, ptr %8, align 8, !tbaa !4
  store ptr %1, ptr %9, align 8, !tbaa !9
  store ptr %2, ptr %10, align 8, !tbaa !9
  store i32 %3, ptr %11, align 4, !tbaa !11
  store ptr %4, ptr %12, align 8, !tbaa !9
  store i32 %5, ptr %13, align 4, !tbaa !11
  %19 = load i32, ptr %13, align 4, !tbaa !11
  %20 = icmp sge i32 %19, 1
  br i1 %20, label %21, label %48

21:                                               ; preds = %6
  %22 = load i32, ptr %11, align 4, !tbaa !11
  %23 = icmp sle i32 %22, 2
  br i1 %23, label %24, label %48

24:                                               ; preds = %21
  %25 = load ptr, ptr %10, align 8, !tbaa !9
  %26 = getelementptr inbounds nuw %struct.lua_TValue, ptr %25, i32 0, i32 2
  %27 = load i32, ptr %26, align 4, !tbaa !13
  %28 = icmp eq i32 %27, 3
  br i1 %28, label %29, label %48

29:                                               ; preds = %24
  call void @llvm.lifetime.start.p0(i64 8, ptr %14) #17
  %30 = load ptr, ptr %10, align 8, !tbaa !9
  %31 = getelementptr inbounds nuw %struct.lua_TValue, ptr %30, i32 0, i32 0
  %32 = load double, ptr %31, align 8, !tbaa !15
  store double %32, ptr %14, align 8, !tbaa !16
  call void @llvm.lifetime.start.p0(i64 8, ptr %15) #17
  call void @llvm.lifetime.start.p0(i64 8, ptr %16) #17
  %33 = load double, ptr %14, align 8, !tbaa !16
  %34 = call double @modf(double noundef %33, ptr noundef %15) #17
  store double %34, ptr %16, align 8, !tbaa !16
  call void @llvm.lifetime.start.p0(i64 8, ptr %17) #17
  %35 = load ptr, ptr %9, align 8, !tbaa !9
  store ptr %35, ptr %17, align 8, !tbaa !9
  %36 = load double, ptr %15, align 8, !tbaa !16
  %37 = load ptr, ptr %17, align 8, !tbaa !9
  %38 = getelementptr inbounds nuw %struct.lua_TValue, ptr %37, i32 0, i32 0
  store double %36, ptr %38, align 8, !tbaa !15
  %39 = load ptr, ptr %17, align 8, !tbaa !9
  %40 = getelementptr inbounds nuw %struct.lua_TValue, ptr %39, i32 0, i32 2
  store i32 3, ptr %40, align 4, !tbaa !13
  call void @llvm.lifetime.end.p0(i64 8, ptr %17) #17
  call void @llvm.lifetime.start.p0(i64 8, ptr %18) #17
  %41 = load ptr, ptr %9, align 8, !tbaa !9
  %42 = getelementptr inbounds %struct.lua_TValue, ptr %41, i64 1
  store ptr %42, ptr %18, align 8, !tbaa !9
  %43 = load double, ptr %16, align 8, !tbaa !16
  %44 = load ptr, ptr %18, align 8, !tbaa !9
  %45 = getelementptr inbounds nuw %struct.lua_TValue, ptr %44, i32 0, i32 0
  store double %43, ptr %45, align 8, !tbaa !15
  %46 = load ptr, ptr %18, align 8, !tbaa !9
  %47 = getelementptr inbounds nuw %struct.lua_TValue, ptr %46, i32 0, i32 2
  store i32 3, ptr %47, align 4, !tbaa !13
  call void @llvm.lifetime.end.p0(i64 8, ptr %18) #17
  store i32 2, ptr %7, align 4
  call void @llvm.lifetime.end.p0(i64 8, ptr %16) #17
  call void @llvm.lifetime.end.p0(i64 8, ptr %15) #17
  call void @llvm.lifetime.end.p0(i64 8, ptr %14) #17
  br label %49

48:                                               ; preds = %24, %21, %6
  store i32 -1, ptr %7, align 4
  br label %49

49:                                               ; preds = %48, %29
  %50 = load i32, ptr %7, align 4
  ret i32 %50
}