; Function Attrs: mustprogress nofree nounwind willreturn memory(argmem: readwrite) uwtable
define internal noundef range(i32 -1, 3) i32 @_ZL10luauF_modfP9lua_StateP10lua_TValueS2_iS2_i(ptr readnone captures(none) %0, ptr noundef writeonly captures(none) %1, ptr noundef readonly captures(none) %2, i32 noundef %3, ptr readnone captures(none) %4, i32 noundef %5) #3 {
  %7 = alloca double, align 8
  %8 = icmp sgt i32 %5, 0
  %9 = icmp slt i32 %3, 3
  %or.cond = and i1 %9, %8
  br i1 %or.cond, label %10, label %21

10:                                               ; preds = %6
  %11 = getelementptr inbounds nuw i8, ptr %2, i64 12
  %12 = load i32, ptr %11, align 4, !tbaa !4
  %13 = icmp eq i32 %12, 3
  br i1 %13, label %14, label %21

14:                                               ; preds = %10
  %15 = load double, ptr %2, align 8, !tbaa !9
  call void @llvm.lifetime.start.p0(i64 8, ptr nonnull %7) #21
  %16 = call double @modf(double noundef %15, ptr noundef nonnull %7) #21
  %17 = load double, ptr %7, align 8, !tbaa !14
  store double %17, ptr %1, align 8, !tbaa !9
  %18 = getelementptr inbounds nuw i8, ptr %1, i64 12
  store i32 3, ptr %18, align 4, !tbaa !4
  %19 = getelementptr inbounds nuw i8, ptr %1, i64 16
  store double %16, ptr %19, align 8, !tbaa !9
  %20 = getelementptr inbounds nuw i8, ptr %1, i64 28
  store i32 3, ptr %20, align 4, !tbaa !4
  call void @llvm.lifetime.end.p0(i64 8, ptr nonnull %7) #21
  br label %21

21:                                               ; preds = %6, %10, %14
  %.0 = phi i32 [ 2, %14 ], [ -1, %10 ], [ -1, %6 ]
  ret i32 %.0
}